; Function Attrs: mustprogress nounwind uwtable
define dso_local void @_ZN4llvm13LazyValueInfo10threadEdgeEPNS_10BasicBlockES2_S2_(ptr nocapture noundef nonnull readonly align 8 dereferenceable(24) %0, ptr nocapture noundef readnone %1, ptr noundef %2, ptr noundef %3) local_unnamed_addr #0 align 2 {
  %5 = getelementptr inbounds nuw i8, ptr %0, i64 16
  %6 = load ptr, ptr %5, align 8
  %.not = icmp eq ptr %6, null
  br i1 %.not, label %8, label %7

7:                                                ; preds = %4
  tail call void @_ZN4llvm17LazyValueInfoImpl10threadEdgeEPNS_10BasicBlockES2_S2_(ptr noundef nonnull align 8 dereferenceable(240) %6, ptr poison, ptr noundef %2, ptr noundef %3)
  br label %8

8:                                                ; preds = %7, %4
  ret void
}